; Function Attrs: mustprogress uwtable
define noundef zeroext i1 @_ZN10GPUProgram4linkEv(ptr noundef nonnull readonly align 8 captures(none) dereferenceable(188) %0) local_unnamed_addr #3 align 2 {
  %2 = alloca i32, align 4
  store i32 1, ptr %2, align 4
  %3 = load ptr, ptr @__glewLinkProgram, align 8
  %4 = getelementptr inbounds nuw i8, ptr %0, i64 24
  %5 = load i32, ptr %4, align 8
  tail call void %3(i32 noundef %5)
  %6 = load ptr, ptr @__glewGetObjectParameterivARB, align 8
  %7 = load i32, ptr %4, align 8
  call void %6(i32 noundef %7, i32 noundef 35714, ptr noundef nonnull %2)
  %8 = load i32, ptr %2, align 4
  %.not = icmp ne i32 %8, 0
  ret i1 %.not
}